; Function Attrs: nounwind uwtable
define ptr @BIO_ADDR_hostname_string(ptr noundef %0, i32 noundef %1) local_unnamed_addr #0 {
  %3 = alloca ptr, align 8
  call void @llvm.lifetime.start.p0(i64 8, ptr nonnull %3) #15
  store ptr null, ptr %3, align 8, !tbaa !14
  %4 = call fastcc i32 @addr_strings(ptr noundef %0, i32 noundef %1, ptr noundef nonnull %3, ptr noundef null)
  %.not = icmp eq i32 %4, 0
  %5 = load ptr, ptr %3, align 8
  %.0 = select i1 %.not, ptr null, ptr %5
  call void @llvm.lifetime.end.p0(i64 8, ptr nonnull %3) #15
  ret ptr %.0
}